target datalayout = "e-m:e-p270:32:32-p271:32:32-p272:64:64-i64:64-i128:128-f80:128-n8:16:32:64-S128"
target triple = "x86_64-unknown-linux-gnu"

%"class.Imf_3_2::RleCompressor" = type { %"class.Imf_3_2::Compressor", i32, ptr, ptr }
%"class.Imf_3_2::Compressor" = type { ptr, ptr }

; Function Attrs: mustprogress nounwind uwtable
define hidden void @_ZN7Imf_3_213RleCompressorD2Ev(ptr noundef nonnull align 8 dereferenceable(40) %this) unnamed_addr #5 align 2 {
entry:
  %this.addr = alloca ptr, align 8
  store ptr %this, ptr %this.addr, align 8
  %this1 = load ptr, ptr %this.addr, align 8
  store ptr getelementptr inbounds ({ [10 x ptr] }, ptr @_ZTVN7Imf_3_213RleCompressorE, i32 0, i32 0, i32 2), ptr %this1, align 8
  %_tmpBuffer = getelementptr inbounds %"class.Imf_3_2::RleCompressor", ptr %this1, i32 0, i32 2
  %0 = load ptr, ptr %_tmpBuffer, align 8
  %isnull = icmp eq ptr %0, null
  br i1 %isnull, label %delete.end, label %delete.notnull

delete.notnull:                                   ; preds = %entry
  call void @_ZdaPv(ptr noundef %0) #10
  br label %delete.end

delete.end:                                       ; preds = %delete.notnull, %entry
  %_outBuffer = getelementptr inbounds %"class.Imf_3_2::RleCompressor", ptr %this1, i32 0, i32 3
  %1 = load ptr, ptr %_outBuffer, align 8
  %isnull2 = icmp eq ptr %1, null
  br i1 %isnull2, label %delete.end4, label %delete.notnull3

delete.notnull3:                                  ; preds = %delete.end
  call void @_ZdaPv(ptr noundef %1) #10
  br label %delete.end4

delete.end4:                                      ; preds = %delete.notnull3, %delete.end
  call void @_ZN7Imf_3_210CompressorD2Ev(ptr noundef nonnull align 8 dereferenceable(16) %this1) #3
  ret void
}